target datalayout = "e-m:e-p270:32:32-p271:32:32-p272:64:64-i64:64-i128:128-f80:128-n8:16:32:64-S128"
target triple = "x86_64-pc-linux-gnu"

%struct.ControlFileData = type { i64, i32, i32, i32, i64, i64, %struct.CheckPoint, i64, i64, i32, i64, i64, i8, i32, i8, i32, i32, i32, i32, i32, i8, i32, double, i32, i32, i32, i32, i32, i32, i32, i32, i8, i32, [32 x i8], i32 }
%struct.CheckPoint = type { i64, i32, i32, i8, i32, %struct.FullTransactionId, i32, i32, i32, i32, i32, i32, i32, i64, i32, i32, i32 }
%struct.FullTransactionId = type { i64 }

@.str.1 = private unnamed_addr constant [41 x i8] c"could not open file \22%s\22 for reading: %m\00", align 1
@.str.2 = private unnamed_addr constant [20 x i8] c"controldata_utils.c\00", align 1
@__func__.get_controlfile_by_exact_path = private unnamed_addr constant [30 x i8] c"get_controlfile_by_exact_path\00", align 1
@.str.3 = private unnamed_addr constant [29 x i8] c"could not read file \22%s\22: %m\00", align 1
@.str.4 = private unnamed_addr constant [41 x i8] c"could not read file \22%s\22: read %d of %zu\00", align 1
@.str.5 = private unnamed_addr constant [30 x i8] c"could not close file \22%s\22: %m\00", align 1
@pg_comp_crc32c = external global ptr, align 8
@.str.6 = private unnamed_addr constant [23 x i8] c"byte ordering mismatch\00", align 1

; Function Attrs: nounwind uwtable
define dso_local ptr @get_controlfile_by_exact_path(ptr noundef %0, ptr noundef %1) #0 {
  %3 = alloca ptr, align 8
  %4 = alloca ptr, align 8
  %5 = alloca ptr, align 8
  %6 = alloca i32, align 4
  %7 = alloca i32, align 4
  %8 = alloca i32, align 4
  store ptr %0, ptr %3, align 8
  store ptr %1, ptr %4, align 8
  call void @llvm.lifetime.start.p0(i64 8, ptr %5) #9
  call void @llvm.lifetime.start.p0(i64 4, ptr %6) #9
  call void @llvm.lifetime.start.p0(i64 4, ptr %7) #9
  call void @llvm.lifetime.start.p0(i64 4, ptr %8) #9
  %9 = call ptr @palloc(i64 noundef 296)
  store ptr %9, ptr %5, align 8
  %10 = load ptr, ptr %3, align 8
  %11 = call i32 @OpenTransientFile(ptr noundef %10, i32 noundef 0)
  store i32 %11, ptr %6, align 4
  %12 = icmp eq i32 %11, -1
  br i1 %12, label %13, label %26

13:                                               ; preds = %2
  br label %14

14:                                               ; preds = %13
  br i1 true, label %15, label %17

15:                                               ; preds = %14
  %16 = call zeroext i1 @errstart_cold(i32 noundef 21, ptr noundef null) #10
  br i1 %16, label %19, label %23

17:                                               ; preds = %14
  %18 = call zeroext i1 @errstart(i32 noundef 21, ptr noundef null)
  br i1 %18, label %19, label %23

19:                                               ; preds = %17, %15
  %20 = call i32 @errcode_for_file_access()
  %21 = load ptr, ptr %3, align 8
  %22 = call i32 (ptr, ...) @errmsg(ptr noundef @.str.1, ptr noundef %21)
  call void @errfinish(ptr noundef @.str.2, i32 noundef 94, ptr noundef @__func__.get_controlfile_by_exact_path)
  br label %23

23:                                               ; preds = %19, %17, %15
  unreachable

24:                                               ; No predecessors!
  br label %25

25:                                               ; preds = %24
  br label %26

26:                                               ; preds = %25, %2
  %27 = load i32, ptr %6, align 4
  %28 = load ptr, ptr %5, align 8
  %29 = call i64 @read(i32 noundef %27, ptr noundef %28, i64 noundef 296)
  %30 = trunc i64 %29 to i32
  store i32 %30, ptr %8, align 4
  %31 = load i32, ptr %8, align 4
  %32 = sext i32 %31 to i64
  %33 = icmp ne i64 %32, 296
  br i1 %33, label %34, label %65

34:                                               ; preds = %26
  %35 = load i32, ptr %8, align 4
  %36 = icmp slt i32 %35, 0
  br i1 %36, label %37, label %50

37:                                               ; preds = %34
  br label %38

38:                                               ; preds = %37
  br i1 true, label %39, label %41

39:                                               ; preds = %38
  %40 = call zeroext i1 @errstart_cold(i32 noundef 21, ptr noundef null) #10
  br i1 %40, label %43, label %47

41:                                               ; preds = %38
  %42 = call zeroext i1 @errstart(i32 noundef 21, ptr noundef null)
  br i1 %42, label %43, label %47

43:                                               ; preds = %41, %39
  %44 = call i32 @errcode_for_file_access()
  %45 = load ptr, ptr %3, align 8
  %46 = call i32 (ptr, ...) @errmsg(ptr noundef @.str.3, ptr noundef %45)
  call void @errfinish(ptr noundef @.str.2, i32 noundef 108, ptr noundef @__func__.get_controlfile_by_exact_path)
  br label %47

47:                                               ; preds = %43, %41, %39
  unreachable

48:                                               ; No predecessors!
  br label %49

49:                                               ; preds = %48
  br label %64

50:                                               ; preds = %34
  br label %51

51:                                               ; preds = %50
  br i1 true, label %52, label %54

52:                                               ; preds = %51
  %53 = call zeroext i1 @errstart_cold(i32 noundef 21, ptr noundef null) #10
  br i1 %53, label %56, label %61

54:                                               ; preds = %51
  %55 = call zeroext i1 @errstart(i32 noundef 21, ptr noundef null)
  br i1 %55, label %56, label %61

56:                                               ; preds = %54, %52
  %57 = call i32 @errcode(i32 noundef 16779816)
  %58 = load ptr, ptr %3, align 8
  %59 = load i32, ptr %8, align 4
  %60 = call i32 (ptr, ...) @errmsg(ptr noundef @.str.4, ptr noundef %58, i32 noundef %59, i64 noundef 296)
  call void @errfinish(ptr noundef @.str.2, i32 noundef 117, ptr noundef @__func__.get_controlfile_by_exact_path)
  br label %61

61:                                               ; preds = %56, %54, %52
  unreachable

62:                                               ; No predecessors!
  br label %63

63:                                               ; preds = %62
  br label %64

64:                                               ; preds = %63, %49
  br label %65

65:                                               ; preds = %64, %26
  %66 = load i32, ptr %6, align 4
  %67 = call i32 @CloseTransientFile(i32 noundef %66)
  %68 = icmp ne i32 %67, 0
  br i1 %68, label %69, label %82

69:                                               ; preds = %65
  br label %70

70:                                               ; preds = %69
  br i1 true, label %71, label %73

71:                                               ; preds = %70
  %72 = call zeroext i1 @errstart_cold(i32 noundef 21, ptr noundef null) #10
  br i1 %72, label %75, label %79

73:                                               ; preds = %70
  %74 = call zeroext i1 @errstart(i32 noundef 21, ptr noundef null)
  br i1 %74, label %75, label %79

75:                                               ; preds = %73, %71
  %76 = call i32 @errcode_for_file_access()
  %77 = load ptr, ptr %3, align 8
  %78 = call i32 (ptr, ...) @errmsg(ptr noundef @.str.5, ptr noundef %77)
  call void @errfinish(ptr noundef @.str.2, i32 noundef 129, ptr noundef @__func__.get_controlfile_by_exact_path)
  br label %79

79:                                               ; preds = %75, %73, %71
  unreachable

80:                                               ; No predecessors!
  br label %81

81:                                               ; preds = %80
  br label %82

82:                                               ; preds = %81, %65
  store i32 -1, ptr %7, align 4
  %83 = load ptr, ptr @pg_comp_crc32c, align 8
  %84 = load i32, ptr %7, align 4
  %85 = load ptr, ptr %5, align 8
  %86 = call i32 %83(i32 noundef %84, ptr noundef %85, i64 noundef 288)
  store i32 %86, ptr %7, align 4
  %87 = load i32, ptr %7, align 4
  %88 = xor i32 %87, -1
  store i32 %88, ptr %7, align 4
  %89 = load i32, ptr %7, align 4
  %90 = load ptr, ptr %5, align 8
  %91 = getelementptr inbounds nuw %struct.ControlFileData, ptr %90, i32 0, i32 34
  %92 = load i32, ptr %91, align 8
  %93 = icmp eq i32 %89, %92
  %94 = load ptr, ptr %4, align 8
  %95 = zext i1 %93 to i8
  store i8 %95, ptr %94, align 1
  %96 = load ptr, ptr %5, align 8
  %97 = getelementptr inbounds nuw %struct.ControlFileData, ptr %96, i32 0, i32 1
  %98 = load i32, ptr %97, align 8
  %99 = urem i32 %98, 65536
  %100 = icmp eq i32 %99, 0
  br i1 %100, label %101, label %118

101:                                              ; preds = %82
  %102 = load ptr, ptr %5, align 8
  %103 = getelementptr inbounds nuw %struct.ControlFileData, ptr %102, i32 0, i32 1
  %104 = load i32, ptr %103, align 8
  %105 = udiv i32 %104, 65536
  %106 = icmp ne i32 %105, 0
  br i1 %106, label %107, label %118

107:                                              ; preds = %101
  br label %108

108:                                              ; preds = %107
  br i1 true, label %109, label %111

109:                                              ; preds = %108
  %110 = call zeroext i1 @errstart_cold(i32 noundef 21, ptr noundef null) #10
  br i1 %110, label %113, label %115

111:                                              ; preds = %108
  %112 = call zeroext i1 @errstart(i32 noundef 21, ptr noundef null)
  br i1 %112, label %113, label %115

113:                                              ; preds = %111, %109
  %114 = call i32 (ptr, ...) @errmsg_internal(ptr noundef @.str.6)
  call void @errfinish(ptr noundef @.str.2, i32 noundef 168, ptr noundef @__func__.get_controlfile_by_exact_path)
  br label %115

115:                                              ; preds = %113, %111, %109
  unreachable

116:                                              ; No predecessors!
  br label %117

117:                                              ; preds = %116
  br label %118

118:                                              ; preds = %117, %101, %82
  %119 = load ptr, ptr %5, align 8
  call void @llvm.lifetime.end.p0(i64 4, ptr %8) #9
  call void @llvm.lifetime.end.p0(i64 4, ptr %7) #9
  call void @llvm.lifetime.end.p0(i64 4, ptr %6) #9
  call void @llvm.lifetime.end.p0(i64 8, ptr %5) #9
  ret ptr %119
}