; Function Attrs: nounwind uwtable
define dso_local ptr @get_controlfile_by_exact_path(ptr noundef %0, ptr noundef writeonly captures(none) %1) local_unnamed_addr #0 {
  %3 = tail call ptr @palloc(i64 noundef 296) #10
  %4 = tail call i32 @OpenTransientFile(ptr noundef %0, i32 noundef 0) #10
  %5 = icmp eq i32 %4, -1
  br i1 %5, label %6, label %10

6:                                                ; preds = %2
  %7 = tail call zeroext i1 @errstart_cold(i32 noundef 21, ptr noundef null) #11
  tail call void @llvm.assume(i1 %7)
  %8 = tail call i32 @errcode_for_file_access() #10
  %9 = tail call i32 (ptr, ...) @errmsg(ptr noundef nonnull @.str.1, ptr noundef %0) #10
  tail call void @errfinish(ptr noundef nonnull @.str.2, i32 noundef 94, ptr noundef nonnull @__func__.get_controlfile_by_exact_path) #10
  unreachable

10:                                               ; preds = %2
  %11 = tail call i64 @read(i32 noundef %4, ptr noundef %3, i64 noundef 296) #10
  %12 = trunc i64 %11 to i32
  %sext.mask = and i64 %11, 4294967295
  %.not = icmp eq i64 %sext.mask, 296
  br i1 %.not, label %22, label %13

13:                                               ; preds = %10
  %14 = icmp slt i32 %12, 0
  %15 = tail call zeroext i1 @errstart_cold(i32 noundef 21, ptr noundef null) #11
  tail call void @llvm.assume(i1 %15)
  br i1 %14, label %16, label %19

16:                                               ; preds = %13
  %17 = tail call i32 @errcode_for_file_access() #10
  %18 = tail call i32 (ptr, ...) @errmsg(ptr noundef nonnull @.str.3, ptr noundef %0) #10
  tail call void @errfinish(ptr noundef nonnull @.str.2, i32 noundef 108, ptr noundef nonnull @__func__.get_controlfile_by_exact_path) #10
  unreachable

19:                                               ; preds = %13
  %20 = tail call i32 @errcode(i32 noundef 16779816) #10
  %21 = tail call i32 (ptr, ...) @errmsg(ptr noundef nonnull @.str.4, ptr noundef %0, i32 noundef %12, i64 noundef 296) #10
  tail call void @errfinish(ptr noundef nonnull @.str.2, i32 noundef 117, ptr noundef nonnull @__func__.get_controlfile_by_exact_path) #10
  unreachable

22:                                               ; preds = %10
  %23 = tail call i32 @CloseTransientFile(i32 noundef %4) #10
  %.not20 = icmp eq i32 %23, 0
  br i1 %.not20, label %28, label %24

24:                                               ; preds = %22
  %25 = tail call zeroext i1 @errstart_cold(i32 noundef 21, ptr noundef null) #11
  tail call void @llvm.assume(i1 %25)
  %26 = tail call i32 @errcode_for_file_access() #10
  %27 = tail call i32 (ptr, ...) @errmsg(ptr noundef nonnull @.str.5, ptr noundef %0) #10
  tail call void @errfinish(ptr noundef nonnull @.str.2, i32 noundef 129, ptr noundef nonnull @__func__.get_controlfile_by_exact_path) #10
  unreachable

28:                                               ; preds = %22
  %29 = load ptr, ptr @pg_comp_crc32c, align 8
  %30 = tail call i32 %29(i32 noundef -1, ptr noundef %3, i64 noundef 288) #10
  %31 = getelementptr inbounds nuw i8, ptr %3, i64 288
  %32 = load i32, ptr %31, align 8
  %33 = xor i32 %32, %30
  %34 = icmp eq i32 %33, -1
  %35 = zext i1 %34 to i8
  store i8 %35, ptr %1, align 1
  %36 = getelementptr inbounds nuw i8, ptr %3, i64 8
  %37 = load i32, ptr %36, align 8
  %38 = and i32 %37, 65535
  %39 = icmp ne i32 %38, 0
  %.not21 = icmp eq i32 %37, 0
  %or.cond = or i1 %.not21, %39
  br i1 %or.cond, label %43, label %40

40:                                               ; preds = %28
  %41 = tail call zeroext i1 @errstart_cold(i32 noundef 21, ptr noundef null) #11
  tail call void @llvm.assume(i1 %41)
  %42 = tail call i32 (ptr, ...) @errmsg_internal(ptr noundef nonnull @.str.6) #10
  tail call void @errfinish(ptr noundef nonnull @.str.2, i32 noundef 168, ptr noundef nonnull @__func__.get_controlfile_by_exact_path) #10
  unreachable

43:                                               ; preds = %28
  ret ptr %3
}